target datalayout = "e-m:e-p270:32:32-p271:32:32-p272:64:64-i64:64-i128:128-f80:128-n8:16:32:64-S128"
target triple = "x86_64-pc-linux-gnu"

%struct.hwloc_infos_s = type { ptr, i32, i32 }
%struct.hwloc_obj = type { i32, ptr, i32, ptr, i64, ptr, i32, i32, ptr, ptr, ptr, i32, ptr, ptr, i32, ptr, ptr, ptr, i32, i32, ptr, i32, ptr, i32, ptr, ptr, ptr, ptr, ptr, %struct.hwloc_infos_s, ptr, i64 }

; Function Attrs: nounwind uwtable
define hidden void @hwloc_free_unlinked_object(ptr noundef %0) #0 {
  %2 = alloca ptr, align 8
  store ptr %0, ptr %2, align 8, !tbaa !37
  %3 = load ptr, ptr %2, align 8, !tbaa !37
  call void @hwloc__free_object_contents(ptr noundef %3)
  %4 = load ptr, ptr %2, align 8, !tbaa !37
  call void @free(ptr noundef %4) #14
  ret void
}

; Function Attrs: nounwind uwtable
define internal void @unlink_and_free_object_and_children(ptr noundef %0) #0 {
  %2 = alloca ptr, align 8
  %3 = alloca ptr, align 8
  %4 = alloca ptr, align 8
  %5 = alloca ptr, align 8
  store ptr %0, ptr %2, align 8, !tbaa !52
  call void @llvm.lifetime.start.p0(i64 8, ptr %3) #14
  %6 = load ptr, ptr %2, align 8, !tbaa !52
  %7 = load ptr, ptr %6, align 8, !tbaa !37
  store ptr %7, ptr %3, align 8, !tbaa !37
  call void @llvm.lifetime.start.p0(i64 8, ptr %4) #14
  call void @llvm.lifetime.start.p0(i64 8, ptr %5) #14
  %8 = load ptr, ptr %3, align 8, !tbaa !37
  %9 = getelementptr inbounds nuw %struct.hwloc_obj, ptr %8, i32 0, i32 16
  store ptr %9, ptr %5, align 8, !tbaa !52
  %10 = load ptr, ptr %5, align 8, !tbaa !52
  %11 = load ptr, ptr %10, align 8, !tbaa !37
  store ptr %11, ptr %4, align 8, !tbaa !37
  br label %12

12:                                               ; preds = %26, %1
  %13 = load ptr, ptr %4, align 8, !tbaa !37
  %14 = icmp ne ptr %13, null
  br i1 %14, label %15, label %29

15:                                               ; preds = %12
  %16 = load ptr, ptr %5, align 8, !tbaa !52
  call void @unlink_and_free_object_and_children(ptr noundef %16)
  br label %17

17:                                               ; preds = %15
  %18 = load ptr, ptr %5, align 8, !tbaa !52
  %19 = load ptr, ptr %18, align 8, !tbaa !37
  %20 = load ptr, ptr %4, align 8, !tbaa !37
  %21 = icmp eq ptr %19, %20
  br i1 %21, label %22, label %25

22:                                               ; preds = %17
  %23 = load ptr, ptr %4, align 8, !tbaa !37
  %24 = getelementptr inbounds nuw %struct.hwloc_obj, ptr %23, i32 0, i32 12
  store ptr %24, ptr %5, align 8, !tbaa !52
  br label %26

25:                                               ; preds = %17
  br label %26

26:                                               ; preds = %25, %22
  %27 = load ptr, ptr %5, align 8, !tbaa !52
  %28 = load ptr, ptr %27, align 8, !tbaa !37
  store ptr %28, ptr %4, align 8, !tbaa !37
  br label %12, !llvm.loop !78

29:                                               ; preds = %12
  %30 = load ptr, ptr %3, align 8, !tbaa !37
  %31 = getelementptr inbounds nuw %struct.hwloc_obj, ptr %30, i32 0, i32 20
  store ptr %31, ptr %5, align 8, !tbaa !52
  %32 = load ptr, ptr %5, align 8, !tbaa !52
  %33 = load ptr, ptr %32, align 8, !tbaa !37
  store ptr %33, ptr %4, align 8, !tbaa !37
  br label %34

34:                                               ; preds = %48, %29
  %35 = load ptr, ptr %4, align 8, !tbaa !37
  %36 = icmp ne ptr %35, null
  br i1 %36, label %37, label %51

37:                                               ; preds = %34
  %38 = load ptr, ptr %5, align 8, !tbaa !52
  call void @unlink_and_free_object_and_children(ptr noundef %38)
  br label %39

39:                                               ; preds = %37
  %40 = load ptr, ptr %5, align 8, !tbaa !52
  %41 = load ptr, ptr %40, align 8, !tbaa !37
  %42 = load ptr, ptr %4, align 8, !tbaa !37
  %43 = icmp eq ptr %41, %42
  br i1 %43, label %44, label %47

44:                                               ; preds = %39
  %45 = load ptr, ptr %4, align 8, !tbaa !37
  %46 = getelementptr inbounds nuw %struct.hwloc_obj, ptr %45, i32 0, i32 12
  store ptr %46, ptr %5, align 8, !tbaa !52
  br label %48

47:                                               ; preds = %39
  br label %48

48:                                               ; preds = %47, %44
  %49 = load ptr, ptr %5, align 8, !tbaa !52
  %50 = load ptr, ptr %49, align 8, !tbaa !37
  store ptr %50, ptr %4, align 8, !tbaa !37
  br label %34, !llvm.loop !79

51:                                               ; preds = %34
  %52 = load ptr, ptr %3, align 8, !tbaa !37
  %53 = getelementptr inbounds nuw %struct.hwloc_obj, ptr %52, i32 0, i32 22
  store ptr %53, ptr %5, align 8, !tbaa !52
  %54 = load ptr, ptr %5, align 8, !tbaa !52
  %55 = load ptr, ptr %54, align 8, !tbaa !37
  store ptr %55, ptr %4, align 8, !tbaa !37
  br label %56

56:                                               ; preds = %70, %51
  %57 = load ptr, ptr %4, align 8, !tbaa !37
  %58 = icmp ne ptr %57, null
  br i1 %58, label %59, label %73

59:                                               ; preds = %56
  %60 = load ptr, ptr %5, align 8, !tbaa !52
  call void @unlink_and_free_object_and_children(ptr noundef %60)
  br label %61

61:                                               ; preds = %59
  %62 = load ptr, ptr %5, align 8, !tbaa !52
  %63 = load ptr, ptr %62, align 8, !tbaa !37
  %64 = load ptr, ptr %4, align 8, !tbaa !37
  %65 = icmp eq ptr %63, %64
  br i1 %65, label %66, label %69

66:                                               ; preds = %61
  %67 = load ptr, ptr %4, align 8, !tbaa !37
  %68 = getelementptr inbounds nuw %struct.hwloc_obj, ptr %67, i32 0, i32 12
  store ptr %68, ptr %5, align 8, !tbaa !52
  br label %70

69:                                               ; preds = %61
  br label %70

70:                                               ; preds = %69, %66
  %71 = load ptr, ptr %5, align 8, !tbaa !52
  %72 = load ptr, ptr %71, align 8, !tbaa !37
  store ptr %72, ptr %4, align 8, !tbaa !37
  br label %56, !llvm.loop !80

73:                                               ; preds = %56
  %74 = load ptr, ptr %3, align 8, !tbaa !37
  %75 = getelementptr inbounds nuw %struct.hwloc_obj, ptr %74, i32 0, i32 24
  store ptr %75, ptr %5, align 8, !tbaa !52
  %76 = load ptr, ptr %5, align 8, !tbaa !52
  %77 = load ptr, ptr %76, align 8, !tbaa !37
  store ptr %77, ptr %4, align 8, !tbaa !37
  br label %78

78:                                               ; preds = %92, %73
  %79 = load ptr, ptr %4, align 8, !tbaa !37
  %80 = icmp ne ptr %79, null
  br i1 %80, label %81, label %95

81:                                               ; preds = %78
  %82 = load ptr, ptr %5, align 8, !tbaa !52
  call void @unlink_and_free_object_and_children(ptr noundef %82)
  br label %83

83:                                               ; preds = %81
  %84 = load ptr, ptr %5, align 8, !tbaa !52
  %85 = load ptr, ptr %84, align 8, !tbaa !37
  %86 = load ptr, ptr %4, align 8, !tbaa !37
  %87 = icmp eq ptr %85, %86
  br i1 %87, label %88, label %91

88:                                               ; preds = %83
  %89 = load ptr, ptr %4, align 8, !tbaa !37
  %90 = getelementptr inbounds nuw %struct.hwloc_obj, ptr %89, i32 0, i32 12
  store ptr %90, ptr %5, align 8, !tbaa !52
  br label %92

91:                                               ; preds = %83
  br label %92

92:                                               ; preds = %91, %88
  %93 = load ptr, ptr %5, align 8, !tbaa !52
  %94 = load ptr, ptr %93, align 8, !tbaa !37
  store ptr %94, ptr %4, align 8, !tbaa !37
  br label %78, !llvm.loop !81

95:                                               ; preds = %78
  %96 = load ptr, ptr %3, align 8, !tbaa !37
  %97 = getelementptr inbounds nuw %struct.hwloc_obj, ptr %96, i32 0, i32 12
  %98 = load ptr, ptr %97, align 8, !tbaa !82
  %99 = load ptr, ptr %2, align 8, !tbaa !52
  store ptr %98, ptr %99, align 8, !tbaa !37
  %100 = load ptr, ptr %3, align 8, !tbaa !37
  call void @hwloc_free_unlinked_object(ptr noundef %100)
  call void @llvm.lifetime.end.p0(i64 8, ptr %5) #14
  call void @llvm.lifetime.end.p0(i64 8, ptr %4) #14
  call void @llvm.lifetime.end.p0(i64 8, ptr %3) #14
  ret void
}