; Function Attrs: nounwind uwtable
define internal fastcc void @unlink_and_free_object_and_children(ptr noundef captures(none) %0) unnamed_addr #5 {
  %2 = load ptr, ptr %0, align 8, !tbaa !50
  %3 = getelementptr inbounds nuw i8, ptr %2, i64 120
  %.03646 = load ptr, ptr %3, align 8, !tbaa !50
  %.not47 = icmp eq ptr %.03646, null
  br i1 %.not47, label %._crit_edge, label %.lr.ph

.lr.ph:                                           ; preds = %1, %.lr.ph
  %.03649 = phi ptr [ %.036, %.lr.ph ], [ %.03646, %1 ]
  %.048 = phi ptr [ %spec.select, %.lr.ph ], [ %3, %1 ]
  tail call fastcc void @unlink_and_free_object_and_children(ptr noundef nonnull %.048)
  %4 = load ptr, ptr %.048, align 8, !tbaa !50
  %5 = icmp eq ptr %4, %.03649
  %6 = getelementptr inbounds nuw i8, ptr %.03649, i64 88
  %spec.select = select i1 %5, ptr %6, ptr %.048
  %.036 = load ptr, ptr %spec.select, align 8, !tbaa !50
  %.not = icmp eq ptr %.036, null
  br i1 %.not, label %._crit_edge, label %.lr.ph, !llvm.loop !85

._crit_edge:                                      ; preds = %.lr.ph, %1
  %7 = getelementptr inbounds nuw i8, ptr %2, i64 144
  %.13750 = load ptr, ptr %7, align 8, !tbaa !50
  %.not4051 = icmp eq ptr %.13750, null
  br i1 %.not4051, label %._crit_edge56, label %.lr.ph55

.lr.ph55:                                         ; preds = %._crit_edge, %.lr.ph55
  %.13753 = phi ptr [ %.137, %.lr.ph55 ], [ %.13750, %._crit_edge ]
  %.252 = phi ptr [ %spec.select43, %.lr.ph55 ], [ %7, %._crit_edge ]
  tail call fastcc void @unlink_and_free_object_and_children(ptr noundef nonnull %.252)
  %8 = load ptr, ptr %.252, align 8, !tbaa !50
  %9 = icmp eq ptr %8, %.13753
  %10 = getelementptr inbounds nuw i8, ptr %.13753, i64 88
  %spec.select43 = select i1 %9, ptr %10, ptr %.252
  %.137 = load ptr, ptr %spec.select43, align 8, !tbaa !50
  %.not40 = icmp eq ptr %.137, null
  br i1 %.not40, label %._crit_edge56, label %.lr.ph55, !llvm.loop !86

._crit_edge56:                                    ; preds = %.lr.ph55, %._crit_edge
  %11 = getelementptr inbounds nuw i8, ptr %2, i64 160
  %.23857 = load ptr, ptr %11, align 8, !tbaa !50
  %.not4158 = icmp eq ptr %.23857, null
  br i1 %.not4158, label %._crit_edge63, label %.lr.ph62

.lr.ph62:                                         ; preds = %._crit_edge56, %.lr.ph62
  %.23860 = phi ptr [ %.238, %.lr.ph62 ], [ %.23857, %._crit_edge56 ]
  %.459 = phi ptr [ %spec.select44, %.lr.ph62 ], [ %11, %._crit_edge56 ]
  tail call fastcc void @unlink_and_free_object_and_children(ptr noundef nonnull %.459)
  %12 = load ptr, ptr %.459, align 8, !tbaa !50
  %13 = icmp eq ptr %12, %.23860
  %14 = getelementptr inbounds nuw i8, ptr %.23860, i64 88
  %spec.select44 = select i1 %13, ptr %14, ptr %.459
  %.238 = load ptr, ptr %spec.select44, align 8, !tbaa !50
  %.not41 = icmp eq ptr %.238, null
  br i1 %.not41, label %._crit_edge63, label %.lr.ph62, !llvm.loop !87

._crit_edge63:                                    ; preds = %.lr.ph62, %._crit_edge56
  %15 = getelementptr inbounds nuw i8, ptr %2, i64 176
  %.33964 = load ptr, ptr %15, align 8, !tbaa !50
  %.not4265 = icmp eq ptr %.33964, null
  br i1 %.not4265, label %._crit_edge70, label %.lr.ph69

.lr.ph69:                                         ; preds = %._crit_edge63, %.lr.ph69
  %.33967 = phi ptr [ %.339, %.lr.ph69 ], [ %.33964, %._crit_edge63 ]
  %.666 = phi ptr [ %spec.select45, %.lr.ph69 ], [ %15, %._crit_edge63 ]
  tail call fastcc void @unlink_and_free_object_and_children(ptr noundef nonnull %.666)
  %16 = load ptr, ptr %.666, align 8, !tbaa !50
  %17 = icmp eq ptr %16, %.33967
  %18 = getelementptr inbounds nuw i8, ptr %.33967, i64 88
  %spec.select45 = select i1 %17, ptr %18, ptr %.666
  %.339 = load ptr, ptr %spec.select45, align 8, !tbaa !50
  %.not42 = icmp eq ptr %.339, null
  br i1 %.not42, label %._crit_edge70, label %.lr.ph69, !llvm.loop !88

._crit_edge70:                                    ; preds = %.lr.ph69, %._crit_edge63
  %19 = getelementptr inbounds nuw i8, ptr %2, i64 88
  %20 = load ptr, ptr %19, align 8, !tbaa !56
  store ptr %20, ptr %0, align 8, !tbaa !50
  tail call fastcc void @hwloc__free_object_contents(ptr noundef %2)
  tail call void @free(ptr noundef %2) #34
  ret void
}